Certificate:
    Data:
        Version: 1 (0x0)
        Serial Number:
            06:c1:74:79:0c:22:76:9d:bb:f7:e2:34:6a:49:d3:1d:9d:e1:16:b2
        Signature Algorithm: NULL
        Issuer: C = US, ST = CA, O = Real Time Innovations, CN = RTI ECDSA01 (p256) PEER01, emailAddress = ecdsa01Peer01@rti.com
        Validity
            Not Before: Aug 12 14:07:24 2022 GMT
            Not After : Aug 11 14:07:24 2027 GMT
        Subject: C = US, ST = CA, O = Real Time Innovations, CN = RTI ECDSA01 (p256) PEER01, emailAddress = ecdsa01Peer01@rti.com
        Subject Public Key Info:
            Public Key Algorithm: id-ecPublicKey
                Public-Key: (256 bit)
                pub:
                    04:ff:a3:c1:02:94:0b:e1:fa:8d:0b:77:c9:89:7b:
                    91:52:84:ce:43:3f:40:14:44:06:e2:ab:27:5b:0f:
                    0e:49:ee:7c:05:b2:8a:80:56:00:18:89:bd:d3:cc:
                    66:45:66:81:22:c7:33:43:2c:de:28:59:d7:e6:3f:
                    38:0a:8e:92:ce
                ASN1 OID: prime256v1
                NIST CURVE: P-256
    Signature Algorithm: NULL
-----BEGIN CERTIFICATE-----
MIICITCCAcegAwIBAgIUBsF0eQwidp279+I0aknTHZ3hFrIwCgYIKoZIzj0EAwIw
gZsxCzAJBgNVBAYTAlVTMQswCQYDVQQIDAJDQTEUMBIGA1UEBwwLU2FudGEgQ2xh
cmExHjAcBgNVBAoMFVJlYWwgVGltZSBJbm5vdmF0aW9uczEjMCEGA1UEAwwaUlRJ
IEVDRFNBMDEgKHAyNTYpIFJPT1QgQ0ExJDAiBgkqhkiG9w0BCQEWFWVjZHNhMDFS
b290Q2FAcnRpLmNvbTAeFw0yMjA4MTIxNDA3MjRaFw0yNzA4MTExNDA3MjRaMIGE
MQswCQYDVQQGEwJVUzELMAkGA1UECAwCQ0ExHjAcBgNVBAoMFVJlYWwgVGltZSBJ
bm5vdmF0aW9uczEiMCAGA1UEAwwZUlRJIEVDRFNBMDEgKHAyNTYpIFBFRVIwMTEk
MCIGCSqGSIb3DQEJARYVZWNkc2EwMVBlZXIwMUBydGkuY29tMFkwEwYHKoZIzj0C
AQYIKoZIzj0DAQcDQgAE/6PBApQL4fqNC3fJiXuRUoTOQz9AFEQG4qsnWw8OSe58
BbKKgFYAGIm908xmRWaBIsczQyzeKFnX5j84Co6SzjAKBggqhkjOPQQDAgNIADBF
AiEAtk3NPj7gt+QEnb+hCz8/Y7bFJC2N7IxAggNBevB3jFUCIH3ZuvWzhY5MGV0+
b3N8vBHOStH6xCPNa9usL9k8NP6J
-----END CERTIFICATE-----
