Certificate:
    Data:
        Version: 1 (0x0)
        Serial Number:
            ce:5f:fd:32:8d:e8:47:20:49:ae:10:50:e4:65:aa:26:87:58:49:ad
        Signature Algorithm: NULL
        Issuer: C = US, ST = CA, O = Real Time Innovations, CN = RTI ECDSA01 (p256) QsDomainParticipant, emailAddress = ecdsa01QsDomainParticipant@rti.com
        Validity
            Not Before: Aug 12 14:07:25 2022 GMT
            Not After : Aug 11 14:07:25 2027 GMT
        Subject: C = US, ST = CA, O = Real Time Innovations, CN = RTI ECDSA01 (p256) QsDomainParticipant, emailAddress = ecdsa01QsDomainParticipant@rti.com
        Subject Public Key Info:
            Public Key Algorithm: id-ecPublicKey
                Public-Key: (256 bit)
                pub:
                    04:2e:f2:8e:07:e6:81:1f:ec:6f:da:be:c1:97:2c:
                    96:12:7f:9f:85:77:02:8c:dc:53:74:3c:ed:14:0d:
                    d4:ec:aa:f6:5d:02:c9:05:a7:2e:98:19:f4:d8:b6:
                    ee:d1:36:d0:07:72:21:b9:43:d9:47:ea:ac:6d:a8:
                    a1:ac:e1:52:fe
                ASN1 OID: prime256v1
                NIST CURVE: P-256
    Signature Algorithm: NULL
-----BEGIN CERTIFICATE-----
MIICPDCCAeKgAwIBAgIVAM5f/TKN6EcgSa4QUORlqiaHWEmtMAoGCCqGSM49BAMC
MIGbMQswCQYDVQQGEwJVUzELMAkGA1UECAwCQ0ExFDASBgNVBAcMC1NhbnRhIENs
YXJhMR4wHAYDVQQKDBVSZWFsIFRpbWUgSW5ub3ZhdGlvbnMxIzAhBgNVBAMMGlJU
SSBFQ0RTQTAxIChwMjU2KSBST09UIENBMSQwIgYJKoZIhvcNAQkBFhVlY2RzYTAx
Um9vdENhQHJ0aS5jb20wHhcNMjIwODEyMTQwNzI1WhcNMjcwODExMTQwNzI1WjCB
njELMAkGA1UEBhMCVVMxCzAJBgNVBAgMAkNBMR4wHAYDVQQKDBVSZWFsIFRpbWUg
SW5ub3ZhdGlvbnMxLzAtBgNVBAMMJlJUSSBFQ0RTQTAxIChwMjU2KSBRc0RvbWFp
blBhcnRpY2lwYW50MTEwLwYJKoZIhvcNAQkBFiJlY2RzYTAxUXNEb21haW5QYXJ0
aWNpcGFudEBydGkuY29tMFkwEwYHKoZIzj0CAQYIKoZIzj0DAQcDQgAELvKOB+aB
H+xv2r7BlyyWEn+fhXcCjNxTdDztFA3U7Kr2XQLJBacumBn02Lbu0TbQB3IhuUPZ
R+qsbaihrOFS/jAKBggqhkjOPQQDAgNIADBFAiA+7roZS8AZu6WS5t5Nfj8FB1oB
RpnEs4Ut7hlG9G7CkAIhAN/WBFtGltnHg5iLjWW2JV6CzrwMpylEyBh2zgxVM+nt
-----END CERTIFICATE-----
