Certificate:
    Data:
        Version: 1 (0x0)
        Serial Number:
            3d:4a:4e:80:97:78:aa:c0:41:a2:5b:ff:9e:0b:4b:d7:91:2d:0b:d9
        Signature Algorithm: NULL
        Issuer: C = US, ST = CA, O = Real Time Innovations, CN = RTI ECDSA01 (p256) PEER02, emailAddress = ecdsa01Peer02@rti.com
        Validity
            Not Before: Aug 12 14:07:24 2022 GMT
            Not After : Aug 11 14:07:24 2027 GMT
        Subject: C = US, ST = CA, O = Real Time Innovations, CN = RTI ECDSA01 (p256) PEER02, emailAddress = ecdsa01Peer02@rti.com
        Subject Public Key Info:
            Public Key Algorithm: id-ecPublicKey
                Public-Key: (256 bit)
                pub:
                    04:de:24:47:89:1f:18:d3:93:72:6a:0a:0f:25:1d:
                    01:41:68:5c:a6:2f:9c:c9:ee:28:e0:9f:be:5a:29:
                    95:4e:d5:2d:73:3c:05:da:f3:19:f4:ac:db:00:80:
                    bb:89:33:38:0b:e1:f1:0a:15:3b:67:1a:a6:df:7c:
                    f7:d1:e8:a3:c2
                ASN1 OID: prime256v1
                NIST CURVE: P-256
    Signature Algorithm: NULL
-----BEGIN CERTIFICATE-----
MIICIDCCAcegAwIBAgIUPUpOgJd4qsBBolv/ngtL15EtC9kwCgYIKoZIzj0EAwIw
gZsxCzAJBgNVBAYTAlVTMQswCQYDVQQIDAJDQTEUMBIGA1UEBwwLU2FudGEgQ2xh
cmExHjAcBgNVBAoMFVJlYWwgVGltZSBJbm5vdmF0aW9uczEjMCEGA1UEAwwaUlRJ
IEVDRFNBMDEgKHAyNTYpIFJPT1QgQ0ExJDAiBgkqhkiG9w0BCQEWFWVjZHNhMDFS
b290Q2FAcnRpLmNvbTAeFw0yMjA4MTIxNDA3MjRaFw0yNzA4MTExNDA3MjRaMIGE
MQswCQYDVQQGEwJVUzELMAkGA1UECAwCQ0ExHjAcBgNVBAoMFVJlYWwgVGltZSBJ
bm5vdmF0aW9uczEiMCAGA1UEAwwZUlRJIEVDRFNBMDEgKHAyNTYpIFBFRVIwMjEk
MCIGCSqGSIb3DQEJARYVZWNkc2EwMVBlZXIwMkBydGkuY29tMFkwEwYHKoZIzj0C
AQYIKoZIzj0DAQcDQgAE3iRHiR8Y05NyagoPJR0BQWhcpi+cye4o4J++WimVTtUt
czwF2vMZ9KzbAIC7iTM4C+HxChU7Zxqm33z30eijwjAKBggqhkjOPQQDAgNHADBE
AiBHZwKjNjbewmijlX1V+QAty6q04bu5kOqy3VkPtlJ+NAIgXAk8SVr2Y1wmEF2K
v49Pex8eMv/hSB1880CqvgYRmAs=
-----END CERTIFICATE-----
