Certificate:
    Data:
        Version: 1 (0x0)
        Serial Number:
            78:f6:34:79:61:e5:28:31:dc:8e:71:e4:87:a1:c0:84:88:bc:d2:53
        Signature Algorithm: NULL
        Issuer: C = US, ST = CA, O = Real Time Innovations, CN = RTI RSA01 PEER01, emailAddress = rsa01Peer01@rti.com
        Validity
            Not Before: Aug 12 14:07:28 2022 GMT
            Not After : Aug 11 14:07:28 2027 GMT
        Subject: C = US, ST = CA, O = Real Time Innovations, CN = RTI RSA01 PEER01, emailAddress = rsa01Peer01@rti.com
        Subject Public Key Info:
            Public Key Algorithm: rsaEncryption
                RSA Public-Key: (2048 bit)
                Modulus:
                    00:b1:a8:bb:eb:dc:1f:15:c7:d3:73:66:78:78:cb:
                    42:57:ff:8e:60:21:84:75:82:cb:4a:71:b1:0b:6c:
                    fe:ad:e5:dd:9c:ce:9a:90:98:1b:85:3a:cd:29:f4:
                    d0:91:c6:21:e0:bc:54:69:e2:ab:86:47:09:99:08:
                    c5:bf:1c:3b:ea:b7:57:89:92:42:df:91:cd:d3:f0:
                    d1:da:52:d2:7a:fb:32:a5:83:fa:09:a2:cc:3d:1d:
                    7e:df:e8:c6:59:02:de:cc:ed:c2:7c:d0:23:ae:f9:
                    f3:51:f6:2d:1b:03:93:51:24:de:97:90:60:cf:91:
                    40:f9:3f:b0:c9:f8:8f:0c:ef:02:5f:e8:8a:73:d3:
                    04:23:bf:9d:76:40:5e:45:0e:15:71:ee:99:81:75:
                    f8:0e:f7:56:c1:e7:52:a6:1f:11:64:4b:ca:69:f9:
                    61:43:7d:9a:61:75:b0:71:fe:de:2c:5b:0d:29:b6:
                    2d:34:8d:48:32:15:4a:4b:ed:05:eb:ee:7e:b9:d6:
                    ab:12:96:47:e2:e9:78:86:65:49:96:ed:4f:35:e1:
                    06:5e:aa:a3:cc:a3:dd:a0:4e:ae:68:24:b4:01:7c:
                    3c:50:65:e7:28:c3:f2:48:a0:20:d6:79:05:45:7d:
                    5a:fc:26:97:69:86:c8:ca:65:2a:92:de:fa:9d:81:
                    39:8f
                Exponent: 65537 (0x10001)
    Signature Algorithm: NULL
-----BEGIN CERTIFICATE-----
MIIDljCCAn6gAwIBAgIUePY0eWHlKDHcjnHkh6HAhIi80lMwDQYJKoZIhvcNAQEL
BQAwgZAxCzAJBgNVBAYTAlVTMQswCQYDVQQIDAJDQTEUMBIGA1UEBwwLU2FudGEg
Q2xhcmExHjAcBgNVBAoMFVJlYWwgVGltZSBJbm5vdmF0aW9uczEaMBgGA1UEAwwR
UlRJIFJTQTAxIFJPT1QgQ0ExIjAgBgkqhkiG9w0BCQEWE3JzYTAxUm9vdENhQHJ0
aS5jb20wHhcNMjIwODEyMTQwNzI4WhcNMjcwODExMTQwNzI4WjB5MQswCQYDVQQG
EwJVUzELMAkGA1UECAwCQ0ExHjAcBgNVBAoMFVJlYWwgVGltZSBJbm5vdmF0aW9u
czEZMBcGA1UEAwwQUlRJIFJTQTAxIFBFRVIwMTEiMCAGCSqGSIb3DQEJARYTcnNh
MDFQZWVyMDFAcnRpLmNvbTCCASIwDQYJKoZIhvcNAQEBBQADggEPADCCAQoCggEB
ALGou+vcHxXH03NmeHjLQlf/jmAhhHWCy0pxsQts/q3l3ZzOmpCYG4U6zSn00JHG
IeC8VGniq4ZHCZkIxb8cO+q3V4mSQt+RzdPw0dpS0nr7MqWD+gmizD0dft/oxlkC
3sztwnzQI67581H2LRsDk1Ek3peQYM+RQPk/sMn4jwzvAl/oinPTBCO/nXZAXkUO
FXHumYF1+A73VsHnUqYfEWRLymn5YUN9mmF1sHH+3ixbDSm2LTSNSDIVSkvtBevu
frnWqxKWR+LpeIZlSZbtTzXhBl6qo8yj3aBOrmgktAF8PFBl5yjD8kigINZ5BUV9
Wvwml2mGyMplKpLe+p2BOY8CAwEAATANBgkqhkiG9w0BAQsFAAOCAQEAqqCQMLLg
wicMN6KY8JQrg0WJAAhqs2P7nvHeq9Cq6YtrMc9tC9H8w+YL4TcghgLoMdjlYMpU
OJ5E5sIQ6K8OQvd8qGyEQPxWcYFZGHQHf8uUxGKHBqXrgzs6+oZuLYEOw0f6ldDC
a5RCBsPDebF7sIVYzHDXCiZJiL/rI/gnSCvl74xcB4m3JNjV0i2++Ofuqhn7lu4n
bFIp/VtFqI7fHxNKySCTHEGXJoHrlWz+fJHDxUJpbDsxHeDyS0ypDL0cOQbcSV+k
MYWWgLEfnx6zYAkirKoIL4c6kwCoeIaosKBN5IzUqKgp970MDXgUoBTY0K/j28Kr
wyhNS7ZlAV40hw==
-----END CERTIFICATE-----
