Certificate:
    Data:
        Version: 1 (0x0)
        Serial Number:
            44:86:dc:8b:90:90:28:4a:ff:cc:05:08:dc:5b:eb:e2:07:9e:31:9c
        Signature Algorithm: NULL
        Issuer: C = US, ST = CA, O = Real Time Innovations, CN = RTI RSA01 PEER02, emailAddress = rsa01Peer02@rti.com
        Validity
            Not Before: Aug 12 14:07:28 2022 GMT
            Not After : Aug 11 14:07:28 2027 GMT
        Subject: C = US, ST = CA, O = Real Time Innovations, CN = RTI RSA01 PEER02, emailAddress = rsa01Peer02@rti.com
        Subject Public Key Info:
            Public Key Algorithm: rsaEncryption
                RSA Public-Key: (2048 bit)
                Modulus:
                    00:ad:10:75:f5:81:58:97:ef:87:6b:33:25:ee:4b:
                    a7:31:37:ff:cb:77:b0:12:85:48:21:4b:f1:9d:b8:
                    36:37:32:dd:46:1a:b0:24:24:b9:96:32:e8:89:27:
                    26:3e:90:48:71:55:84:e5:ff:07:14:6e:41:52:31:
                    0a:3d:9d:e4:95:48:3b:f4:54:dd:9c:9e:e9:c3:44:
                    a6:27:0e:bc:7d:93:0e:be:f7:1e:cd:0d:52:f6:90:
                    e0:fa:7a:f7:f9:0d:0f:bc:f5:a5:24:11:36:8c:68:
                    a3:e5:cc:8d:e4:ec:6e:ef:17:e3:e0:e4:60:65:72:
                    33:de:95:7e:5c:92:95:6a:2f:df:00:5a:21:b8:40:
                    77:90:f5:d0:88:41:5b:dd:07:0b:88:b3:b3:15:f0:
                    4f:9b:2f:c1:92:ae:be:30:8d:ee:ba:57:ee:8f:fb:
                    70:b9:db:93:cb:bc:36:55:57:15:7c:fc:44:3a:0d:
                    72:66:15:d0:34:2d:d4:18:5f:65:b9:0a:1e:02:0f:
                    bc:29:14:c8:a0:3f:79:cd:5a:15:7d:76:54:c8:c6:
                    5e:1c:06:90:9d:ad:d1:4c:18:ad:55:31:6d:11:39:
                    4d:27:85:36:0b:90:ab:ef:9c:2d:36:d4:0a:47:07:
                    cf:2e:a3:0d:2b:15:89:cb:a0:c0:7e:ca:a0:a2:3d:
                    29:bd
                Exponent: 65537 (0x10001)
    Signature Algorithm: NULL
-----BEGIN CERTIFICATE-----
MIIDljCCAn6gAwIBAgIURIbci5CQKEr/zAUI3Fvr4geeMZwwDQYJKoZIhvcNAQEL
BQAwgZAxCzAJBgNVBAYTAlVTMQswCQYDVQQIDAJDQTEUMBIGA1UEBwwLU2FudGEg
Q2xhcmExHjAcBgNVBAoMFVJlYWwgVGltZSBJbm5vdmF0aW9uczEaMBgGA1UEAwwR
UlRJIFJTQTAxIFJPT1QgQ0ExIjAgBgkqhkiG9w0BCQEWE3JzYTAxUm9vdENhQHJ0
aS5jb20wHhcNMjIwODEyMTQwNzI4WhcNMjcwODExMTQwNzI4WjB5MQswCQYDVQQG
EwJVUzELMAkGA1UECAwCQ0ExHjAcBgNVBAoMFVJlYWwgVGltZSBJbm5vdmF0aW9u
czEZMBcGA1UEAwwQUlRJIFJTQTAxIFBFRVIwMjEiMCAGCSqGSIb3DQEJARYTcnNh
MDFQZWVyMDJAcnRpLmNvbTCCASIwDQYJKoZIhvcNAQEBBQADggEPADCCAQoCggEB
AK0QdfWBWJfvh2szJe5LpzE3/8t3sBKFSCFL8Z24Njcy3UYasCQkuZYy6IknJj6Q
SHFVhOX/BxRuQVIxCj2d5JVIO/RU3Zye6cNEpicOvH2TDr73Hs0NUvaQ4Pp69/kN
D7z1pSQRNoxoo+XMjeTsbu8X4+DkYGVyM96VflySlWov3wBaIbhAd5D10IhBW90H
C4izsxXwT5svwZKuvjCN7rpX7o/7cLnbk8u8NlVXFXz8RDoNcmYV0DQt1BhfZbkK
HgIPvCkUyKA/ec1aFX12VMjGXhwGkJ2t0UwYrVUxbRE5TSeFNguQq++cLTbUCkcH
zy6jDSsVicugwH7KoKI9Kb0CAwEAATANBgkqhkiG9w0BAQsFAAOCAQEABdF/C3e7
gV/nWYjqZwDNHeF6zCiryz1p75mk4HOLkPWP8JRgDIuOawf6Bq0NBSjwMftw5/3F
bZ+j3VXxslK7Kjnn9axXFg5NXerDdip6ckNL5kGb2+YWFgSkikI5NrOcBepgbGF2
M624688GdgO3ri/JKe3mlyHjEJ5oqvzmenmwFUwGegXyGsgM8pgc8INbOsnD+SpY
WhAaZgRVLGnVY5OGnI2zYIwNuUln9wsIW38HLNx2qEg3/lHJtjPrO6/1YzCOql7W
ByHVlklxLsYkyKsixEonDCXTDQ9SiGODzY4Ntq4Sb7NXe+lqpLVKsZ7T/zaYLdnB
WDgTyskRI25gNg==
-----END CERTIFICATE-----
