Certificate:
    Data:
        Version: 1 (0x0)
        Serial Number:
            72:26:93:53:f1:e3:87:b7:b4:13:11:69:ce:13:82:af:61:07:ad:3d
        Signature Algorithm: ecdsa-with-SHA256
        Issuer: C = US, ST = CA, L = Santa Clara, O = Real Time Innovations, CN = RTI ECDSA01 (p256) ROOT CA, emailAddress = ecdsa01RootCa@rti.com
        Validity
            Not Before: Aug 12 14:07:23 2022 GMT
            Not After : Aug 11 14:07:23 2027 GMT
        Subject: C = US, ST = CA, L = Santa Clara, O = Real Time Innovations, CN = RTI ECDSA01 (p256) ROOT CA, emailAddress = ecdsa01RootCa@rti.com
        Subject Public Key Info:
            Public Key Algorithm: id-ecPublicKey
                Public-Key: (256 bit)
                pub:
                    04:2e:83:1b:a4:22:62:d2:5c:e9:f3:ab:4f:17:f4:
                    db:6d:33:d5:9b:42:1f:58:fc:3c:b7:8b:19:b0:08:
                    67:1b:5e:3e:a7:10:99:d3:39:2c:78:90:ad:e2:d9:
                    62:25:98:83:9f:99:05:bc:cc:69:b6:b3:d0:28:23:
                    2c:61:6d:19:0c
                ASN1 OID: prime256v1
                NIST CURVE: P-256
    Signature Algorithm: ecdsa-with-SHA256
         30:45:02:21:00:ce:43:8a:b3:14:1e:ee:ec:e9:6c:11:ae:29:
         c4:c5:ac:1c:03:1a:8c:06:c1:3e:1a:b9:ad:ef:85:df:87:7d:
         85:02:20:26:a7:5e:d5:e4:37:c9:18:59:1d:a2:7b:2b:d6:9a:
         83:97:58:f5:96:d7:a8:39:c6:b6:08:77:c6:b9:68:ed:15
-----BEGIN CERTIFICATE-----
MIICMzCCAdkCFHImk1Px44e3tBMRac4Tgq9hB609MAoGCCqGSM49BAMCMIGbMQsw
CQYDVQQGEwJVUzELMAkGA1UECAwCQ0ExFDASBgNVBAcMC1NhbnRhIENsYXJhMR4w
HAYDVQQKDBVSZWFsIFRpbWUgSW5ub3ZhdGlvbnMxIzAhBgNVBAMMGlJUSSBFQ0RT
QTAxIChwMjU2KSBST09UIENBMSQwIgYJKoZIhvcNAQkBFhVlY2RzYTAxUm9vdENh
QHJ0aS5jb20wHhcNMjIwODEyMTQwNzIzWhcNMjcwODExMTQwNzIzWjCBmzELMAkG
A1UEBhMCVVMxCzAJBgNVBAgMAkNBMRQwEgYDVQQHDAtTYW50YSBDbGFyYTEeMBwG
A1UECgwVUmVhbCBUaW1lIElubm92YXRpb25zMSMwIQYDVQQDDBpSVEkgRUNEU0Ew
MSAocDI1NikgUk9PVCBDQTEkMCIGCSqGSIb3DQEJARYVZWNkc2EwMVJvb3RDYUBy
dGkuY29tMFkwEwYHKoZIzj0CAQYIKoZIzj0DAQcDQgAELoMbpCJi0lzp86tPF/Tb
bTPVm0IfWPw8t4sZsAhnG14+pxCZ0zkseJCt4tliJZiDn5kFvMxptrPQKCMsYW0Z
DDAKBggqhkjOPQQDAgNIADBFAiEAzkOKsxQe7uzpbBGuKcTFrBwDGowGwT4aua3v
hd+HfYUCICanXtXkN8kYWR2ieyvWmoOXWPWW16g5xrYId8a5aO0V
-----END CERTIFICATE-----
