Certificate:
    Data:
        Version: 1 (0x0)
        Serial Number:
            1e:7e:a6:12:36:b6:f4:86:65:03:a1:1e:7b:15:76:a0:9a:d1:6f:d8
        Signature Algorithm: sha256WithRSAEncryption
        Issuer: C = US, ST = CA, L = Santa Clara, O = Real Time Innovations, CN = RTI RSA01 ROOT CA, emailAddress = rsa01RootCa@rti.com
        Validity
            Not Before: Aug 12 14:07:27 2022 GMT
            Not After : Aug 11 14:07:27 2027 GMT
        Subject: C = US, ST = CA, L = Santa Clara, O = Real Time Innovations, CN = RTI RSA01 ROOT CA, emailAddress = rsa01RootCa@rti.com
        Subject Public Key Info:
            Public Key Algorithm: rsaEncryption
                RSA Public-Key: (2048 bit)
                Modulus:
                    00:ac:32:e7:0d:f4:77:9c:c0:07:a1:49:64:56:f8:
                    72:96:cd:55:3b:ba:2e:62:d8:5a:a2:2e:42:cf:3f:
                    c9:1e:d1:23:c6:b8:02:26:a0:24:b4:9b:d5:49:60:
                    22:a5:58:21:28:66:4d:01:eb:c8:08:a4:bd:5a:f5:
                    7e:97:7c:43:6b:10:da:a2:f3:ed:11:96:e2:d9:dd:
                    e7:18:db:ef:5c:3e:a4:fb:f0:1d:7c:39:ad:3e:46:
                    f8:97:01:84:8c:9c:57:d5:ec:c5:bb:32:7a:56:7f:
                    52:32:8f:37:2f:f4:f8:86:8a:e2:3e:eb:29:23:4c:
                    6a:82:ff:95:0b:ef:27:51:e3:1b:57:5d:f3:d3:1a:
                    5c:73:a7:14:0e:37:7c:0c:9d:c8:36:68:aa:13:07:
                    d0:41:93:c4:0c:cf:b6:4e:64:a4:aa:da:97:07:f8:
                    13:e6:ad:76:f4:6f:a8:ef:ee:98:e8:a0:f1:62:48:
                    37:81:3c:79:03:ea:d0:3c:c0:77:c4:d1:6e:62:15:
                    55:d9:07:70:d1:38:d2:b4:aa:a8:d5:85:62:a1:e6:
                    97:d9:b2:86:c3:e8:37:e5:ff:4b:79:2f:f3:57:47:
                    66:f6:0d:6f:9f:79:1c:7b:af:32:63:6e:01:3a:4f:
                    39:e8:fc:ae:57:74:d4:05:ec:b7:ae:49:89:0c:7a:
                    98:cb
                Exponent: 65537 (0x10001)
    Signature Algorithm: sha256WithRSAEncryption
         04:99:18:00:cf:09:70:82:e8:bb:67:e9:6d:78:82:7d:9f:ab:
         bd:1d:b0:56:fc:fa:98:62:f7:bc:98:2b:ef:a4:16:51:1a:94:
         7b:d7:fe:93:11:ae:d4:69:36:df:ac:5f:ae:39:fe:85:5c:88:
         3e:28:08:2b:ef:3c:6e:ce:51:8b:06:63:b5:3c:25:3e:b4:a0:
         3b:02:af:82:37:ce:bb:3a:9b:55:0e:e4:26:55:23:25:2a:ad:
         55:0f:a7:2f:94:7d:3e:50:92:78:27:5c:ae:97:32:0b:9c:71:
         3d:7c:a0:12:bf:27:e8:ac:b1:3b:e4:62:c7:55:01:85:c7:e8:
         94:83:d9:8d:d3:2c:b3:08:4c:19:9f:15:07:05:13:6e:34:7f:
         53:4d:6c:97:09:81:e8:61:c4:e3:5c:75:59:12:0a:78:f6:7e:
         5e:ae:c1:6d:1b:2b:8a:c1:9c:3b:58:78:2e:23:31:05:c1:3c:
         52:30:61:4e:5d:64:80:cf:ea:68:56:5b:bc:8b:b8:ae:39:8b:
         08:26:7a:2a:1b:d8:6d:0a:ab:58:3f:d7:3c:cb:39:d6:45:98:
         71:a2:cd:24:84:ac:b6:f3:d1:68:95:c6:1b:16:5d:c0:19:39:
         7a:89:cf:5b:4c:c6:1f:8a:74:d5:ab:1b:fe:f6:fd:34:5d:35:
         8a:4d:56:1f
-----BEGIN CERTIFICATE-----
MIIDqTCCApECFB5+phI2tvSGZQOhHnsVdqCa0W/YMA0GCSqGSIb3DQEBCwUAMIGQ
MQswCQYDVQQGEwJVUzELMAkGA1UECAwCQ0ExFDASBgNVBAcMC1NhbnRhIENsYXJh
MR4wHAYDVQQKDBVSZWFsIFRpbWUgSW5ub3ZhdGlvbnMxGjAYBgNVBAMMEVJUSSBS
U0EwMSBST09UIENBMSIwIAYJKoZIhvcNAQkBFhNyc2EwMVJvb3RDYUBydGkuY29t
MB4XDTIyMDgxMjE0MDcyN1oXDTI3MDgxMTE0MDcyN1owgZAxCzAJBgNVBAYTAlVT
MQswCQYDVQQIDAJDQTEUMBIGA1UEBwwLU2FudGEgQ2xhcmExHjAcBgNVBAoMFVJl
YWwgVGltZSBJbm5vdmF0aW9uczEaMBgGA1UEAwwRUlRJIFJTQTAxIFJPT1QgQ0Ex
IjAgBgkqhkiG9w0BCQEWE3JzYTAxUm9vdENhQHJ0aS5jb20wggEiMA0GCSqGSIb3
DQEBAQUAA4IBDwAwggEKAoIBAQCsMucN9HecwAehSWRW+HKWzVU7ui5i2FqiLkLP
P8ke0SPGuAImoCS0m9VJYCKlWCEoZk0B68gIpL1a9X6XfENrENqi8+0RluLZ3ecY
2+9cPqT78B18Oa0+RviXAYSMnFfV7MW7MnpWf1Iyjzcv9PiGiuI+6ykjTGqC/5UL
7ydR4xtXXfPTGlxzpxQON3wMncg2aKoTB9BBk8QMz7ZOZKSq2pcH+BPmrXb0b6jv
7pjooPFiSDeBPHkD6tA8wHfE0W5iFVXZB3DRONK0qqjVhWKh5pfZsobD6Dfl/0t5
L/NXR2b2DW+feRx7rzJjbgE6Tzno/K5XdNQF7LeuSYkMepjLAgMBAAEwDQYJKoZI
hvcNAQELBQADggEBAASZGADPCXCC6Ltn6W14gn2fq70dsFb8+phi97yYK++kFlEa
lHvX/pMRrtRpNt+sX645/oVciD4oCCvvPG7OUYsGY7U8JT60oDsCr4I3zrs6m1UO
5CZVIyUqrVUPpy+UfT5QkngnXK6XMguccT18oBK/J+issTvkYsdVAYXH6JSD2Y3T
LLMITBmfFQcFE240f1NNbJcJgehhxONcdVkSCnj2fl6uwW0bK4rBnDtYeC4jMQXB
PFIwYU5dZIDP6mhWW7yLuK45iwgmeiob2G0Kq1g/1zzLOdZFmHGizSSErLbz0WiV
xhsWXcAZOXqJz1tMxh+KdNWrG/72/TRdNYpNVh8=
-----END CERTIFICATE-----
